; Function Attrs: mustprogress uwtable
define hidden noundef ptr @_ZN3smt10theory_str10mk_indexofEP4exprS2_(ptr noundef nonnull align 8 dereferenceable(1800) %0, ptr noundef %1, ptr noundef %2) local_unnamed_addr #4 align 2 {
  %4 = alloca [3 x ptr], align 16
  %5 = tail call noundef ptr @_ZN3smt10theory_str6mk_intEi(ptr noundef nonnull align 8 dereferenceable(1800) %0, i32 noundef 0)
  call void @llvm.lifetime.start.p0(i64 24, ptr nonnull %4) #25
  store ptr %1, ptr %4, align 16, !tbaa !337
  %6 = getelementptr inbounds nuw i8, ptr %4, i64 8
  store ptr %2, ptr %6, align 8, !tbaa !337
  %7 = getelementptr inbounds nuw i8, ptr %4, i64 16
  store ptr %5, ptr %7, align 16, !tbaa !337
  %8 = getelementptr inbounds nuw i8, ptr %0, i64 136
  %9 = load ptr, ptr %8, align 8, !tbaa !871
  %10 = getelementptr inbounds nuw i8, ptr %0, i64 144
  %11 = load i32, ptr %10, align 8, !tbaa !164
  %12 = call noundef ptr @_ZN11ast_manager6mk_appEiijPKP4expr(ptr noundef nonnull align 8 dereferenceable(976) %9, i32 noundef %11, i32 noundef 13, i32 noundef 3, ptr noundef nonnull %4)
  call void @llvm.lifetime.end.p0(i64 24, ptr nonnull %4) #25
  %.not.i.i.i.i = icmp eq ptr %12, null
  br i1 %.not.i.i.i.i, label %_ZN15ref_vector_coreI4expr19ref_manager_wrapperIS0_11ast_managerEE7inc_refEPS0_.exit.i, label %13

13:                                               ; preds = %3
  %14 = getelementptr inbounds nuw i8, ptr %12, i64 8
  %15 = load i32, ptr %14, align 4, !tbaa !253
  %16 = add i32 %15, 1
  store i32 %16, ptr %14, align 4, !tbaa !253
  br label %_ZN15ref_vector_coreI4expr19ref_manager_wrapperIS0_11ast_managerEE7inc_refEPS0_.exit.i

_ZN15ref_vector_coreI4expr19ref_manager_wrapperIS0_11ast_managerEE7inc_refEPS0_.exit.i: ; preds = %13, %3
  %17 = getelementptr inbounds nuw i8, ptr %0, i64 248
  %18 = load ptr, ptr %17, align 8, !tbaa !167
  %19 = icmp eq ptr %18, null
  br i1 %19, label %26, label %20

20:                                               ; preds = %_ZN15ref_vector_coreI4expr19ref_manager_wrapperIS0_11ast_managerEE7inc_refEPS0_.exit.i
  %21 = getelementptr inbounds i8, ptr %18, i64 -4
  %22 = load i32, ptr %21, align 4, !tbaa !336
  %23 = getelementptr inbounds i8, ptr %18, i64 -8
  %24 = load i32, ptr %23, align 4, !tbaa !336
  %25 = icmp eq i32 %22, %24
  br i1 %25, label %26, label %_ZN15ref_vector_coreI4expr19ref_manager_wrapperIS0_11ast_managerEE9push_backEPS0_.exit

26:                                               ; preds = %20, %_ZN15ref_vector_coreI4expr19ref_manager_wrapperIS0_11ast_managerEE7inc_refEPS0_.exit.i
  call void @_ZN6vectorIP4exprLb0EjE13expand_vectorEv(ptr noundef nonnull align 8 dereferenceable(8) %17)
  %.pre.i.i = load ptr, ptr %17, align 8, !tbaa !167
  %.phi.trans.insert.i.i = getelementptr inbounds i8, ptr %.pre.i.i, i64 -4
  %.pre2.i.i = load i32, ptr %.phi.trans.insert.i.i, align 4, !tbaa !336
  br label %_ZN15ref_vector_coreI4expr19ref_manager_wrapperIS0_11ast_managerEE9push_backEPS0_.exit

_ZN15ref_vector_coreI4expr19ref_manager_wrapperIS0_11ast_managerEE9push_backEPS0_.exit: ; preds = %20, %26
  %27 = phi i32 [ %.pre2.i.i, %26 ], [ %22, %20 ]
  %28 = phi ptr [ %.pre.i.i, %26 ], [ %18, %20 ]
  %29 = getelementptr inbounds i8, ptr %28, i64 -4
  %30 = zext i32 %27 to i64
  %31 = getelementptr inbounds nuw ptr, ptr %28, i64 %30
  store ptr %12, ptr %31, align 8, !tbaa !337
  %32 = add i32 %27, 1
  store i32 %32, ptr %29, align 4, !tbaa !336
  %33 = getelementptr inbounds nuw i8, ptr %0, i64 16
  %34 = load ptr, ptr %33, align 8, !tbaa !386
  call void @_ZN3smt7context11internalizeEP4exprb(ptr noundef nonnull align 8 dereferenceable(10544) %34, ptr noundef %12, i1 noundef zeroext false)
  call void @_ZN3smt10theory_str13set_up_axiomsEP4expr(ptr noundef nonnull align 8 dereferenceable(1800) %0, ptr noundef %12)
  ret ptr %12
}